target datalayout = "e-m:e-p270:32:32-p271:32:32-p272:64:64-i64:64-i128:128-f80:128-n8:16:32:64-S128"
target triple = "x86_64-pc-linux-gnu"

%"class.cv::epnp" = type { double, double, double, double, %"class.std::vector", %"class.std::vector", %"class.std::vector", %"class.std::vector", i32, [4 x [3 x double]], [4 x [3 x double]], i32, ptr, ptr }
%"class.std::vector" = type { %"struct.std::_Vector_base" }
%"struct.std::_Vector_base" = type { %"struct.std::_Vector_base<double, std::allocator<double>>::_Vector_impl" }
%"struct.std::_Vector_base<double, std::allocator<double>>::_Vector_impl" = type { %"struct.std::_Vector_base<double, std::allocator<double>>::_Vector_impl_data" }
%"struct.std::_Vector_base<double, std::allocator<double>>::_Vector_impl_data" = type { ptr, ptr, ptr }

; Function Attrs: mustprogress nounwind uwtable
define hidden void @_ZN2cv4epnp11compute_ccsEPKdS2_(ptr noundef nonnull align 8 dereferenceable(352) %0, ptr noundef %1, ptr noundef %2) #5 align 2 {
  %4 = alloca ptr, align 8
  %5 = alloca ptr, align 8
  %6 = alloca ptr, align 8
  %7 = alloca i32, align 4
  %8 = alloca i32, align 4
  %9 = alloca i32, align 4
  %10 = alloca ptr, align 8
  %11 = alloca i32, align 4
  %12 = alloca i32, align 4
  store ptr %0, ptr %4, align 8, !tbaa !3
  store ptr %1, ptr %5, align 8, !tbaa !83
  store ptr %2, ptr %6, align 8, !tbaa !83
  %13 = load ptr, ptr %4, align 8
  call void @llvm.lifetime.start.p0(i64 4, ptr %7) #3
  store i32 0, ptr %7, align 4, !tbaa !10
  br label %14

14:                                               ; preds = %34, %3
  %15 = load i32, ptr %7, align 4, !tbaa !10
  %16 = icmp slt i32 %15, 4
  br i1 %16, label %18, label %17

17:                                               ; preds = %14
  call void @llvm.lifetime.end.p0(i64 4, ptr %7) #3
  br label %37

18:                                               ; preds = %14
  %19 = getelementptr inbounds nuw %"class.cv::epnp", ptr %13, i32 0, i32 10
  %20 = load i32, ptr %7, align 4, !tbaa !10
  %21 = sext i32 %20 to i64
  %22 = getelementptr inbounds [4 x [3 x double]], ptr %19, i64 0, i64 %21
  %23 = getelementptr inbounds [3 x double], ptr %22, i64 0, i64 2
  store double 0.000000e+00, ptr %23, align 8, !tbaa !40
  %24 = getelementptr inbounds nuw %"class.cv::epnp", ptr %13, i32 0, i32 10
  %25 = load i32, ptr %7, align 4, !tbaa !10
  %26 = sext i32 %25 to i64
  %27 = getelementptr inbounds [4 x [3 x double]], ptr %24, i64 0, i64 %26
  %28 = getelementptr inbounds [3 x double], ptr %27, i64 0, i64 1
  store double 0.000000e+00, ptr %28, align 8, !tbaa !40
  %29 = getelementptr inbounds nuw %"class.cv::epnp", ptr %13, i32 0, i32 10
  %30 = load i32, ptr %7, align 4, !tbaa !10
  %31 = sext i32 %30 to i64
  %32 = getelementptr inbounds [4 x [3 x double]], ptr %29, i64 0, i64 %31
  %33 = getelementptr inbounds [3 x double], ptr %32, i64 0, i64 0
  store double 0.000000e+00, ptr %33, align 8, !tbaa !40
  br label %34

34:                                               ; preds = %18
  %35 = load i32, ptr %7, align 4, !tbaa !10
  %36 = add nsw i32 %35, 1
  store i32 %36, ptr %7, align 4, !tbaa !10
  br label %14, !llvm.loop !87

37:                                               ; preds = %17
  call void @llvm.lifetime.start.p0(i64 4, ptr %8) #3
  store i32 0, ptr %8, align 4, !tbaa !10
  br label %38

38:                                               ; preds = %89, %37
  %39 = load i32, ptr %8, align 4, !tbaa !10
  %40 = icmp slt i32 %39, 4
  br i1 %40, label %42, label %41

41:                                               ; preds = %38
  store i32 5, ptr %9, align 4
  call void @llvm.lifetime.end.p0(i64 4, ptr %8) #3
  br label %92

42:                                               ; preds = %38
  call void @llvm.lifetime.start.p0(i64 8, ptr %10) #3
  %43 = load ptr, ptr %6, align 8, !tbaa !83
  %44 = load i32, ptr %8, align 4, !tbaa !10
  %45 = sub nsw i32 11, %44
  %46 = mul nsw i32 12, %45
  %47 = sext i32 %46 to i64
  %48 = getelementptr inbounds double, ptr %43, i64 %47
  store ptr %48, ptr %10, align 8, !tbaa !83
  call void @llvm.lifetime.start.p0(i64 4, ptr %11) #3
  store i32 0, ptr %11, align 4, !tbaa !10
  br label %49

49:                                               ; preds = %85, %42
  %50 = load i32, ptr %11, align 4, !tbaa !10
  %51 = icmp slt i32 %50, 4
  br i1 %51, label %53, label %52

52:                                               ; preds = %49
  store i32 8, ptr %9, align 4
  call void @llvm.lifetime.end.p0(i64 4, ptr %11) #3
  br label %88

53:                                               ; preds = %49
  call void @llvm.lifetime.start.p0(i64 4, ptr %12) #3
  store i32 0, ptr %12, align 4, !tbaa !10
  br label %54

54:                                               ; preds = %81, %53
  %55 = load i32, ptr %12, align 4, !tbaa !10
  %56 = icmp slt i32 %55, 3
  br i1 %56, label %58, label %57

57:                                               ; preds = %54
  store i32 11, ptr %9, align 4
  call void @llvm.lifetime.end.p0(i64 4, ptr %12) #3
  br label %84

58:                                               ; preds = %54
  %59 = load ptr, ptr %5, align 8, !tbaa !83
  %60 = load i32, ptr %8, align 4, !tbaa !10
  %61 = sext i32 %60 to i64
  %62 = getelementptr inbounds double, ptr %59, i64 %61
  %63 = load double, ptr %62, align 8, !tbaa !40
  %64 = load ptr, ptr %10, align 8, !tbaa !83
  %65 = load i32, ptr %11, align 4, !tbaa !10
  %66 = mul nsw i32 3, %65
  %67 = load i32, ptr %12, align 4, !tbaa !10
  %68 = add nsw i32 %66, %67
  %69 = sext i32 %68 to i64
  %70 = getelementptr inbounds double, ptr %64, i64 %69
  %71 = load double, ptr %70, align 8, !tbaa !40
  %72 = getelementptr inbounds nuw %"class.cv::epnp", ptr %13, i32 0, i32 10
  %73 = load i32, ptr %11, align 4, !tbaa !10
  %74 = sext i32 %73 to i64
  %75 = getelementptr inbounds [4 x [3 x double]], ptr %72, i64 0, i64 %74
  %76 = load i32, ptr %12, align 4, !tbaa !10
  %77 = sext i32 %76 to i64
  %78 = getelementptr inbounds [3 x double], ptr %75, i64 0, i64 %77
  %79 = load double, ptr %78, align 8, !tbaa !40
  %80 = call double @llvm.fmuladd.f64(double %63, double %71, double %79)
  store double %80, ptr %78, align 8, !tbaa !40
  br label %81

81:                                               ; preds = %58
  %82 = load i32, ptr %12, align 4, !tbaa !10
  %83 = add nsw i32 %82, 1
  store i32 %83, ptr %12, align 4, !tbaa !10
  br label %54, !llvm.loop !88

84:                                               ; preds = %57
  br label %85

85:                                               ; preds = %84
  %86 = load i32, ptr %11, align 4, !tbaa !10
  %87 = add nsw i32 %86, 1
  store i32 %87, ptr %11, align 4, !tbaa !10
  br label %49, !llvm.loop !89

88:                                               ; preds = %52
  call void @llvm.lifetime.end.p0(i64 8, ptr %10) #3
  br label %89

89:                                               ; preds = %88
  %90 = load i32, ptr %8, align 4, !tbaa !10
  %91 = add nsw i32 %90, 1
  store i32 %91, ptr %8, align 4, !tbaa !10
  br label %38, !llvm.loop !90

92:                                               ; preds = %41
  ret void
}