; Function Attrs: mustprogress nofree norecurse nosync nounwind memory(argmem: readwrite) uwtable
define hidden void @_ZN2cv4epnp11compute_ccsEPKdS2_(ptr noundef nonnull align 8 captures(none) dereferenceable(352) initializes((232, 328)) %0, ptr noundef readonly captures(none) %1, ptr noundef readonly captures(none) %2) local_unnamed_addr #11 align 2 {
.preheader23:
  %3 = getelementptr inbounds nuw i8, ptr %0, i64 232
  tail call void @llvm.memset.p0.i64(ptr noundef nonnull align 8 dereferenceable(96) %3, i8 0, i64 96, i1 false), !tbaa !32
  br label %5

4:                                                ; preds = %9
  ret void

5:                                                ; preds = %.preheader23, %9
  %indvars.iv34 = phi i64 [ 0, %.preheader23 ], [ %indvars.iv.next35, %9 ]
  %6 = sub nuw nsw i64 11, %indvars.iv34
  %.idx = mul nuw nsw i64 %6, 96
  %7 = getelementptr inbounds nuw i8, ptr %2, i64 %.idx
  %8 = getelementptr inbounds nuw double, ptr %1, i64 %indvars.iv34
  br label %.preheader

.preheader:                                       ; preds = %5, %10
  %indvars.iv30 = phi i64 [ 0, %5 ], [ %indvars.iv.next31, %10 ]
  %.idx38 = mul nuw nsw i64 %indvars.iv30, 24
  %invariant.gep = getelementptr inbounds nuw i8, ptr %7, i64 %.idx38
  br label %11

9:                                                ; preds = %10
  %indvars.iv.next35 = add nuw nsw i64 %indvars.iv34, 1
  %exitcond37.not = icmp eq i64 %indvars.iv.next35, 4
  br i1 %exitcond37.not, label %4, label %5, !llvm.loop !95

10:                                               ; preds = %11
  %indvars.iv.next31 = add nuw nsw i64 %indvars.iv30, 1
  %exitcond33.not = icmp eq i64 %indvars.iv.next31, 4
  br i1 %exitcond33.not, label %9, label %.preheader, !llvm.loop !96

11:                                               ; preds = %.preheader, %11
  %indvars.iv = phi i64 [ 0, %.preheader ], [ %indvars.iv.next, %11 ]
  %12 = load double, ptr %8, align 8, !tbaa !32
  %gep = getelementptr inbounds nuw double, ptr %invariant.gep, i64 %indvars.iv
  %13 = load double, ptr %gep, align 8, !tbaa !32
  %14 = getelementptr inbounds nuw [4 x [3 x double]], ptr %3, i64 0, i64 %indvars.iv30, i64 %indvars.iv
  %15 = load double, ptr %14, align 8, !tbaa !32
  %16 = tail call double @llvm.fmuladd.f64(double %12, double %13, double %15)
  store double %16, ptr %14, align 8, !tbaa !32
  %indvars.iv.next = add nuw nsw i64 %indvars.iv, 1
  %exitcond.not = icmp eq i64 %indvars.iv.next, 3
  br i1 %exitcond.not, label %10, label %11, !llvm.loop !97
}